target datalayout = "e-m:e-p270:32:32-p271:32:32-p272:64:64-i64:64-i128:128-f80:128-n8:16:32:64-S128"
target triple = "x86_64-pc-linux-gnu"

%struct.AVFilterContext = type { ptr, ptr, ptr, ptr, ptr, i32, ptr, ptr, i32, ptr, ptr, i32, i32, ptr, ptr, ptr, ptr, i32, ptr, i32, i32 }
%struct.XFadeContext = type { ptr, i32, i64, i64, ptr, i32, i32, i32, i64, i64, i64, i64, i32, [2 x i32], [2 x ptr], i32, [4 x i16], [4 x i16], ptr, ptr }
%struct.AVRational = type { i32, i32 }
%struct.AVFrame = type { [8 x ptr], [8 x i32], ptr, i32, i32, i32, i32, i32, %struct.AVRational, i64, i64, %struct.AVRational, i32, ptr, i32, i32, [8 x ptr], ptr, i32, ptr, i32, i32, i32, i32, i32, i32, i32, i64, ptr, i32, ptr, ptr, i64, i64, i64, i64, ptr, %struct.AVChannelLayout, i64 }
%struct.AVChannelLayout = type { i32, i32, %union.anon.1, ptr }
%union.anon.1 = type { i64 }

; Function Attrs: inlinehint nounwind uwtable
define internal float @mix(float noundef %0, float noundef %1, float noundef %2) #4 {
  %4 = alloca float, align 4
  %5 = alloca float, align 4
  %6 = alloca float, align 4
  store float %0, ptr %4, align 4, !tbaa !90
  store float %1, ptr %5, align 4, !tbaa !90
  store float %2, ptr %6, align 4, !tbaa !90
  %7 = load float, ptr %4, align 4, !tbaa !90
  %8 = load float, ptr %6, align 4, !tbaa !90
  %9 = load float, ptr %5, align 4, !tbaa !90
  %10 = load float, ptr %6, align 4, !tbaa !90
  %11 = fsub nsz float 1.000000e+00, %10
  %12 = fmul nsz float %9, %11
  %13 = call nsz float @llvm.fmuladd.f32(float %7, float %8, float %12)
  ret float %13
}

; Function Attrs: nounwind uwtable
define internal void @fadefast16_transition(ptr noundef %0, ptr noundef %1, ptr noundef %2, ptr noundef %3, float noundef %4, i32 noundef %5, i32 noundef %6, i32 noundef %7) #1 {
  %9 = alloca ptr, align 8
  %10 = alloca ptr, align 8
  %11 = alloca ptr, align 8
  %12 = alloca ptr, align 8
  %13 = alloca float, align 4
  %14 = alloca i32, align 4
  %15 = alloca i32, align 4
  %16 = alloca i32, align 4
  %17 = alloca ptr, align 8
  %18 = alloca i32, align 4
  %19 = alloca i32, align 4
  %20 = alloca float, align 4
  %21 = alloca i32, align 4
  %22 = alloca i32, align 4
  %23 = alloca ptr, align 8
  %24 = alloca ptr, align 8
  %25 = alloca ptr, align 8
  %26 = alloca i32, align 4
  %27 = alloca i32, align 4
  store ptr %0, ptr %9, align 8, !tbaa !4
  store ptr %1, ptr %10, align 8, !tbaa !36
  store ptr %2, ptr %11, align 8, !tbaa !36
  store ptr %3, ptr %12, align 8, !tbaa !36
  store float %4, ptr %13, align 4, !tbaa !90
  store i32 %5, ptr %14, align 4, !tbaa !32
  store i32 %6, ptr %15, align 4, !tbaa !32
  store i32 %7, ptr %16, align 4, !tbaa !32
  call void @llvm.lifetime.start.p0(i64 8, ptr %17) #10
  %28 = load ptr, ptr %9, align 8, !tbaa !4
  %29 = getelementptr inbounds nuw %struct.AVFilterContext, ptr %28, i32 0, i32 9
  %30 = load ptr, ptr %29, align 8, !tbaa !9
  store ptr %30, ptr %17, align 8, !tbaa !22
  call void @llvm.lifetime.start.p0(i64 4, ptr %18) #10
  %31 = load i32, ptr %15, align 4, !tbaa !32
  %32 = load i32, ptr %14, align 4, !tbaa !32
  %33 = sub nsw i32 %31, %32
  store i32 %33, ptr %18, align 4, !tbaa !32
  call void @llvm.lifetime.start.p0(i64 4, ptr %19) #10
  %34 = load ptr, ptr %12, align 8, !tbaa !36
  %35 = getelementptr inbounds nuw %struct.AVFrame, ptr %34, i32 0, i32 3
  %36 = load i32, ptr %35, align 8, !tbaa !92
  store i32 %36, ptr %19, align 4, !tbaa !32
  call void @llvm.lifetime.start.p0(i64 4, ptr %20) #10
  %37 = load ptr, ptr %17, align 8, !tbaa !22
  %38 = getelementptr inbounds nuw %struct.XFadeContext, ptr %37, i32 0, i32 15
  %39 = load i32, ptr %38, align 8, !tbaa !83
  %40 = sitofp i32 %39 to float
  %41 = fdiv nsz float 1.000000e+00, %40
  store float %41, ptr %20, align 4, !tbaa !90
  call void @llvm.lifetime.start.p0(i64 4, ptr %21) #10
  store i32 0, ptr %21, align 4, !tbaa !32
  br label %42

42:                                               ; preds = %218, %8
  %43 = load i32, ptr %21, align 4, !tbaa !32
  %44 = load ptr, ptr %17, align 8, !tbaa !22
  %45 = getelementptr inbounds nuw %struct.XFadeContext, ptr %44, i32 0, i32 5
  %46 = load i32, ptr %45, align 8, !tbaa !82
  %47 = icmp slt i32 %43, %46
  br i1 %47, label %49, label %48

48:                                               ; preds = %42
  store i32 2, ptr %22, align 4
  call void @llvm.lifetime.end.p0(i64 4, ptr %21) #10
  br label %221

49:                                               ; preds = %42
  call void @llvm.lifetime.start.p0(i64 8, ptr %23) #10
  %50 = load ptr, ptr %10, align 8, !tbaa !36
  %51 = getelementptr inbounds nuw %struct.AVFrame, ptr %50, i32 0, i32 0
  %52 = load i32, ptr %21, align 4, !tbaa !32
  %53 = sext i32 %52 to i64
  %54 = getelementptr inbounds [8 x ptr], ptr %51, i64 0, i64 %53
  %55 = load ptr, ptr %54, align 8, !tbaa !96
  %56 = load i32, ptr %14, align 4, !tbaa !32
  %57 = load ptr, ptr %10, align 8, !tbaa !36
  %58 = getelementptr inbounds nuw %struct.AVFrame, ptr %57, i32 0, i32 1
  %59 = load i32, ptr %21, align 4, !tbaa !32
  %60 = sext i32 %59 to i64
  %61 = getelementptr inbounds [8 x i32], ptr %58, i64 0, i64 %60
  %62 = load i32, ptr %61, align 4, !tbaa !32
  %63 = mul nsw i32 %56, %62
  %64 = sext i32 %63 to i64
  %65 = getelementptr inbounds i8, ptr %55, i64 %64
  store ptr %65, ptr %23, align 8, !tbaa !101
  call void @llvm.lifetime.start.p0(i64 8, ptr %24) #10
  %66 = load ptr, ptr %11, align 8, !tbaa !36
  %67 = getelementptr inbounds nuw %struct.AVFrame, ptr %66, i32 0, i32 0
  %68 = load i32, ptr %21, align 4, !tbaa !32
  %69 = sext i32 %68 to i64
  %70 = getelementptr inbounds [8 x ptr], ptr %67, i64 0, i64 %69
  %71 = load ptr, ptr %70, align 8, !tbaa !96
  %72 = load i32, ptr %14, align 4, !tbaa !32
  %73 = load ptr, ptr %11, align 8, !tbaa !36
  %74 = getelementptr inbounds nuw %struct.AVFrame, ptr %73, i32 0, i32 1
  %75 = load i32, ptr %21, align 4, !tbaa !32
  %76 = sext i32 %75 to i64
  %77 = getelementptr inbounds [8 x i32], ptr %74, i64 0, i64 %76
  %78 = load i32, ptr %77, align 4, !tbaa !32
  %79 = mul nsw i32 %72, %78
  %80 = sext i32 %79 to i64
  %81 = getelementptr inbounds i8, ptr %71, i64 %80
  store ptr %81, ptr %24, align 8, !tbaa !101
  call void @llvm.lifetime.start.p0(i64 8, ptr %25) #10
  %82 = load ptr, ptr %12, align 8, !tbaa !36
  %83 = getelementptr inbounds nuw %struct.AVFrame, ptr %82, i32 0, i32 0
  %84 = load i32, ptr %21, align 4, !tbaa !32
  %85 = sext i32 %84 to i64
  %86 = getelementptr inbounds [8 x ptr], ptr %83, i64 0, i64 %85
  %87 = load ptr, ptr %86, align 8, !tbaa !96
  %88 = load i32, ptr %14, align 4, !tbaa !32
  %89 = load ptr, ptr %12, align 8, !tbaa !36
  %90 = getelementptr inbounds nuw %struct.AVFrame, ptr %89, i32 0, i32 1
  %91 = load i32, ptr %21, align 4, !tbaa !32
  %92 = sext i32 %91 to i64
  %93 = getelementptr inbounds [8 x i32], ptr %90, i64 0, i64 %92
  %94 = load i32, ptr %93, align 4, !tbaa !32
  %95 = mul nsw i32 %88, %94
  %96 = sext i32 %95 to i64
  %97 = getelementptr inbounds i8, ptr %87, i64 %96
  store ptr %97, ptr %25, align 8, !tbaa !101
  call void @llvm.lifetime.start.p0(i64 4, ptr %26) #10
  store i32 0, ptr %26, align 4, !tbaa !32
  br label %98

98:                                               ; preds = %214, %49
  %99 = load i32, ptr %26, align 4, !tbaa !32
  %100 = load i32, ptr %18, align 4, !tbaa !32
  %101 = icmp slt i32 %99, %100
  br i1 %101, label %103, label %102

102:                                              ; preds = %98
  store i32 5, ptr %22, align 4
  call void @llvm.lifetime.end.p0(i64 4, ptr %26) #10
  br label %217

103:                                              ; preds = %98
  call void @llvm.lifetime.start.p0(i64 4, ptr %27) #10
  store i32 0, ptr %27, align 4, !tbaa !32
  br label %104

104:                                              ; preds = %180, %103
  %105 = load i32, ptr %27, align 4, !tbaa !32
  %106 = load i32, ptr %19, align 4, !tbaa !32
  %107 = icmp slt i32 %105, %106
  br i1 %107, label %109, label %108

108:                                              ; preds = %104
  store i32 8, ptr %22, align 4
  call void @llvm.lifetime.end.p0(i64 4, ptr %27) #10
  br label %183

109:                                              ; preds = %104
  %110 = load ptr, ptr %23, align 8, !tbaa !101
  %111 = load i32, ptr %27, align 4, !tbaa !32
  %112 = sext i32 %111 to i64
  %113 = getelementptr inbounds i16, ptr %110, i64 %112
  %114 = load i16, ptr %113, align 2, !tbaa !84
  %115 = uitofp i16 %114 to float
  %116 = load ptr, ptr %24, align 8, !tbaa !101
  %117 = load i32, ptr %27, align 4, !tbaa !32
  %118 = sext i32 %117 to i64
  %119 = getelementptr inbounds i16, ptr %116, i64 %118
  %120 = load i16, ptr %119, align 2, !tbaa !84
  %121 = uitofp i16 %120 to float
  %122 = load float, ptr %13, align 4, !tbaa !90
  %123 = load ptr, ptr %23, align 8, !tbaa !101
  %124 = load i32, ptr %27, align 4, !tbaa !32
  %125 = sext i32 %124 to i64
  %126 = getelementptr inbounds i16, ptr %123, i64 %125
  %127 = load i16, ptr %126, align 2, !tbaa !84
  %128 = zext i16 %127 to i32
  %129 = load ptr, ptr %24, align 8, !tbaa !101
  %130 = load i32, ptr %27, align 4, !tbaa !32
  %131 = sext i32 %130 to i64
  %132 = getelementptr inbounds i16, ptr %129, i64 %131
  %133 = load i16, ptr %132, align 2, !tbaa !84
  %134 = zext i16 %133 to i32
  %135 = sub nsw i32 %128, %134
  %136 = icmp sge i32 %135, 0
  br i1 %136, label %137, label %151

137:                                              ; preds = %109
  %138 = load ptr, ptr %23, align 8, !tbaa !101
  %139 = load i32, ptr %27, align 4, !tbaa !32
  %140 = sext i32 %139 to i64
  %141 = getelementptr inbounds i16, ptr %138, i64 %140
  %142 = load i16, ptr %141, align 2, !tbaa !84
  %143 = zext i16 %142 to i32
  %144 = load ptr, ptr %24, align 8, !tbaa !101
  %145 = load i32, ptr %27, align 4, !tbaa !32
  %146 = sext i32 %145 to i64
  %147 = getelementptr inbounds i16, ptr %144, i64 %146
  %148 = load i16, ptr %147, align 2, !tbaa !84
  %149 = zext i16 %148 to i32
  %150 = sub nsw i32 %143, %149
  br label %166

151:                                              ; preds = %109
  %152 = load ptr, ptr %23, align 8, !tbaa !101
  %153 = load i32, ptr %27, align 4, !tbaa !32
  %154 = sext i32 %153 to i64
  %155 = getelementptr inbounds i16, ptr %152, i64 %154
  %156 = load i16, ptr %155, align 2, !tbaa !84
  %157 = zext i16 %156 to i32
  %158 = load ptr, ptr %24, align 8, !tbaa !101
  %159 = load i32, ptr %27, align 4, !tbaa !32
  %160 = sext i32 %159 to i64
  %161 = getelementptr inbounds i16, ptr %158, i64 %160
  %162 = load i16, ptr %161, align 2, !tbaa !84
  %163 = zext i16 %162 to i32
  %164 = sub nsw i32 %157, %163
  %165 = sub nsw i32 0, %164
  br label %166

166:                                              ; preds = %151, %137
  %167 = phi i32 [ %150, %137 ], [ %165, %151 ]
  %168 = sitofp i32 %167 to float
  %169 = load float, ptr %20, align 4, !tbaa !90
  %170 = call nsz float @llvm.fmuladd.f32(float %168, float %169, float 1.000000e+00)
  %171 = call nsz float @llvm.log.f32(float %170)
  %172 = fadd nsz float 1.000000e+00, %171
  %173 = call nsz float @llvm.pow.f32(float %122, float %172)
  %174 = call nsz float @mix(float noundef %115, float noundef %121, float noundef %173)
  %175 = fptoui float %174 to i16
  %176 = load ptr, ptr %25, align 8, !tbaa !101
  %177 = load i32, ptr %27, align 4, !tbaa !32
  %178 = sext i32 %177 to i64
  %179 = getelementptr inbounds i16, ptr %176, i64 %178
  store i16 %175, ptr %179, align 2, !tbaa !84
  br label %180

180:                                              ; preds = %166
  %181 = load i32, ptr %27, align 4, !tbaa !32
  %182 = add nsw i32 %181, 1
  store i32 %182, ptr %27, align 4, !tbaa !32
  br label %104, !llvm.loop !381

183:                                              ; preds = %108
  %184 = load ptr, ptr %12, align 8, !tbaa !36
  %185 = getelementptr inbounds nuw %struct.AVFrame, ptr %184, i32 0, i32 1
  %186 = load i32, ptr %21, align 4, !tbaa !32
  %187 = sext i32 %186 to i64
  %188 = getelementptr inbounds [8 x i32], ptr %185, i64 0, i64 %187
  %189 = load i32, ptr %188, align 4, !tbaa !32
  %190 = sdiv i32 %189, 2
  %191 = load ptr, ptr %25, align 8, !tbaa !101
  %192 = sext i32 %190 to i64
  %193 = getelementptr inbounds i16, ptr %191, i64 %192
  store ptr %193, ptr %25, align 8, !tbaa !101
  %194 = load ptr, ptr %10, align 8, !tbaa !36
  %195 = getelementptr inbounds nuw %struct.AVFrame, ptr %194, i32 0, i32 1
  %196 = load i32, ptr %21, align 4, !tbaa !32
  %197 = sext i32 %196 to i64
  %198 = getelementptr inbounds [8 x i32], ptr %195, i64 0, i64 %197
  %199 = load i32, ptr %198, align 4, !tbaa !32
  %200 = sdiv i32 %199, 2
  %201 = load ptr, ptr %23, align 8, !tbaa !101
  %202 = sext i32 %200 to i64
  %203 = getelementptr inbounds i16, ptr %201, i64 %202
  store ptr %203, ptr %23, align 8, !tbaa !101
  %204 = load ptr, ptr %11, align 8, !tbaa !36
  %205 = getelementptr inbounds nuw %struct.AVFrame, ptr %204, i32 0, i32 1
  %206 = load i32, ptr %21, align 4, !tbaa !32
  %207 = sext i32 %206 to i64
  %208 = getelementptr inbounds [8 x i32], ptr %205, i64 0, i64 %207
  %209 = load i32, ptr %208, align 4, !tbaa !32
  %210 = sdiv i32 %209, 2
  %211 = load ptr, ptr %24, align 8, !tbaa !101
  %212 = sext i32 %210 to i64
  %213 = getelementptr inbounds i16, ptr %211, i64 %212
  store ptr %213, ptr %24, align 8, !tbaa !101
  br label %214

214:                                              ; preds = %183
  %215 = load i32, ptr %26, align 4, !tbaa !32
  %216 = add nsw i32 %215, 1
  store i32 %216, ptr %26, align 4, !tbaa !32
  br label %98, !llvm.loop !382

217:                                              ; preds = %102
  call void @llvm.lifetime.end.p0(i64 8, ptr %25) #10
  call void @llvm.lifetime.end.p0(i64 8, ptr %24) #10
  call void @llvm.lifetime.end.p0(i64 8, ptr %23) #10
  br label %218

218:                                              ; preds = %217
  %219 = load i32, ptr %21, align 4, !tbaa !32
  %220 = add nsw i32 %219, 1
  store i32 %220, ptr %21, align 4, !tbaa !32
  br label %42, !llvm.loop !383

221:                                              ; preds = %48
  call void @llvm.lifetime.end.p0(i64 4, ptr %20) #10
  call void @llvm.lifetime.end.p0(i64 4, ptr %19) #10
  call void @llvm.lifetime.end.p0(i64 4, ptr %18) #10
  call void @llvm.lifetime.end.p0(i64 8, ptr %17) #10
  ret void
}