; Function Attrs: nofree norecurse nosync nounwind memory(readwrite, inaccessiblemem: none) uwtable
define internal void @fadefast16_transition(ptr noundef readonly captures(none) %0, ptr noundef readonly captures(none) %1, ptr noundef readonly captures(none) %2, ptr noundef readonly captures(none) %3, float noundef %4, i32 noundef %5, i32 noundef %6, i32 %7) #6 {
  %9 = getelementptr inbounds nuw i8, ptr %0, i64 72
  %10 = load ptr, ptr %9, align 8, !tbaa !4
  %11 = sub i32 %6, %5
  %12 = getelementptr inbounds nuw i8, ptr %3, i64 104
  %13 = load i32, ptr %12, align 8, !tbaa !85
  %14 = getelementptr inbounds nuw i8, ptr %10, i64 120
  %15 = load i32, ptr %14, align 8, !tbaa !78
  %16 = sitofp i32 %15 to float
  %17 = fdiv nsz float 1.000000e+00, %16
  %18 = getelementptr inbounds nuw i8, ptr %10, i64 40
  %19 = load i32, ptr %18, align 8, !tbaa !77
  %20 = icmp sgt i32 %19, 0
  br i1 %20, label %.lr.ph, label %._crit_edge

.lr.ph:                                           ; preds = %8
  %21 = getelementptr inbounds nuw i8, ptr %1, i64 64
  %22 = getelementptr inbounds nuw i8, ptr %2, i64 64
  %23 = getelementptr inbounds nuw i8, ptr %3, i64 64
  %24 = icmp sgt i32 %11, 0
  %25 = icmp sgt i32 %13, 0
  %or.cond = select i1 %24, i1 %25, i1 false
  br i1 %or.cond, label %.preheader.lr.ph.us.us.preheader, label %._crit_edge

.preheader.lr.ph.us.us.preheader:                 ; preds = %.lr.ph
  %wide.trip.count84 = zext nneg i32 %19 to i64
  %wide.trip.count = zext nneg i32 %13 to i64
  br label %.preheader.lr.ph.us.us

.preheader.lr.ph.us.us:                           ; preds = %.preheader.lr.ph.us.us.preheader, %._crit_edge68.split.us.us.us
  %indvars.iv81 = phi i64 [ 0, %.preheader.lr.ph.us.us.preheader ], [ %indvars.iv.next82, %._crit_edge68.split.us.us.us ]
  %26 = getelementptr inbounds nuw [8 x ptr], ptr %1, i64 0, i64 %indvars.iv81
  %27 = load ptr, ptr %26, align 8, !tbaa !89
  %28 = getelementptr inbounds nuw [8 x i32], ptr %21, i64 0, i64 %indvars.iv81
  %29 = load i32, ptr %28, align 4, !tbaa !31
  %30 = mul nsw i32 %29, %5
  %31 = sext i32 %30 to i64
  %32 = getelementptr inbounds i8, ptr %27, i64 %31
  %33 = getelementptr inbounds nuw [8 x ptr], ptr %2, i64 0, i64 %indvars.iv81
  %34 = load ptr, ptr %33, align 8, !tbaa !89
  %35 = getelementptr inbounds nuw [8 x i32], ptr %22, i64 0, i64 %indvars.iv81
  %36 = load i32, ptr %35, align 4, !tbaa !31
  %37 = mul nsw i32 %36, %5
  %38 = sext i32 %37 to i64
  %39 = getelementptr inbounds i8, ptr %34, i64 %38
  %40 = getelementptr inbounds nuw [8 x ptr], ptr %3, i64 0, i64 %indvars.iv81
  %41 = load ptr, ptr %40, align 8, !tbaa !89
  %42 = getelementptr inbounds nuw [8 x i32], ptr %23, i64 0, i64 %indvars.iv81
  %43 = load i32, ptr %42, align 4, !tbaa !31
  %44 = mul nsw i32 %43, %5
  %45 = sext i32 %44 to i64
  %46 = getelementptr inbounds i8, ptr %41, i64 %45
  %47 = sdiv i32 %43, 2
  %48 = sext i32 %47 to i64
  %49 = sdiv i32 %29, 2
  %50 = sext i32 %49 to i64
  %51 = sdiv i32 %36, 2
  %52 = sext i32 %51 to i64
  br label %.preheader.us.us.us

.preheader.us.us.us:                              ; preds = %._crit_edge.us.us.us, %.preheader.lr.ph.us.us
  %.05767.us.us.us = phi i32 [ 0, %.preheader.lr.ph.us.us ], [ %77, %._crit_edge.us.us.us ]
  %.05866.us.us.us = phi ptr [ %46, %.preheader.lr.ph.us.us ], [ %74, %._crit_edge.us.us.us ]
  %.05965.us.us.us = phi ptr [ %39, %.preheader.lr.ph.us.us ], [ %76, %._crit_edge.us.us.us ]
  %.06064.us.us.us = phi ptr [ %32, %.preheader.lr.ph.us.us ], [ %75, %._crit_edge.us.us.us ]
  br label %53

53:                                               ; preds = %53, %.preheader.us.us.us
  %indvars.iv = phi i64 [ %indvars.iv.next, %53 ], [ 0, %.preheader.us.us.us ]
  %54 = getelementptr inbounds nuw i16, ptr %.06064.us.us.us, i64 %indvars.iv
  %55 = load i16, ptr %54, align 2, !tbaa !79
  %56 = uitofp i16 %55 to float
  %57 = getelementptr inbounds nuw i16, ptr %.05965.us.us.us, i64 %indvars.iv
  %58 = load i16, ptr %57, align 2, !tbaa !79
  %59 = uitofp i16 %58 to float
  %60 = zext i16 %55 to i32
  %61 = zext i16 %58 to i32
  %62 = sub nsw i32 %60, %61
  %63 = tail call i32 @llvm.abs.i32(i32 %62, i1 true)
  %64 = uitofp nneg i32 %63 to float
  %65 = tail call nsz float @llvm.fmuladd.f32(float %64, float %17, float 1.000000e+00)
  %66 = tail call nsz float @llvm.log.f32(float %65)
  %67 = fadd nsz float %66, 1.000000e+00
  %68 = tail call nsz float @llvm.pow.f32(float %4, float %67)
  %69 = fsub nsz float 1.000000e+00, %68
  %70 = fmul nsz float %69, %59
  %71 = tail call nsz noundef float @llvm.fmuladd.f32(float %56, float %68, float %70)
  %72 = fptoui float %71 to i16
  %73 = getelementptr inbounds nuw i16, ptr %.05866.us.us.us, i64 %indvars.iv
  store i16 %72, ptr %73, align 2, !tbaa !79
  %indvars.iv.next = add nuw nsw i64 %indvars.iv, 1
  %exitcond.not = icmp eq i64 %indvars.iv.next, %wide.trip.count
  br i1 %exitcond.not, label %._crit_edge.us.us.us, label %53, !llvm.loop !373

._crit_edge.us.us.us:                             ; preds = %53
  %74 = getelementptr inbounds i16, ptr %.05866.us.us.us, i64 %48
  %75 = getelementptr inbounds i16, ptr %.06064.us.us.us, i64 %50
  %76 = getelementptr inbounds i16, ptr %.05965.us.us.us, i64 %52
  %77 = add nuw nsw i32 %.05767.us.us.us, 1
  %exitcond80.not = icmp eq i32 %77, %11
  br i1 %exitcond80.not, label %._crit_edge68.split.us.us.us, label %.preheader.us.us.us, !llvm.loop !374

._crit_edge68.split.us.us.us:                     ; preds = %._crit_edge.us.us.us
  %indvars.iv.next82 = add nuw nsw i64 %indvars.iv81, 1
  %exitcond85.not = icmp eq i64 %indvars.iv.next82, %wide.trip.count84
  br i1 %exitcond85.not, label %._crit_edge, label %.preheader.lr.ph.us.us, !llvm.loop !375

._crit_edge:                                      ; preds = %._crit_edge68.split.us.us.us, %.lr.ph, %8
  ret void
}